target datalayout = "e-m:e-p270:32:32-p271:32:32-p272:64:64-i64:64-i128:128-f80:128-n8:16:32:64-S128"
target triple = "x86_64-pc-linux-gnu"

%struct.SDL_GUID = type { [16 x i8] }

; Function Attrs: nounwind uwtable
define hidden void @SDL_GetJoystickGUIDInfo_REAL(i64 %0, i64 %1, ptr noundef %2, ptr noundef %3, ptr noundef %4, ptr noundef %5) #0 {
  %7 = alloca %struct.SDL_GUID, align 1
  %8 = alloca ptr, align 8
  %9 = alloca ptr, align 8
  %10 = alloca ptr, align 8
  %11 = alloca ptr, align 8
  %12 = alloca ptr, align 8
  %13 = alloca i16, align 2
  %14 = getelementptr inbounds nuw { i64, i64 }, ptr %7, i32 0, i32 0
  store i64 %0, ptr %14, align 1
  %15 = getelementptr inbounds nuw { i64, i64 }, ptr %7, i32 0, i32 1
  store i64 %1, ptr %15, align 1
  store ptr %2, ptr %8, align 8
  store ptr %3, ptr %9, align 8
  store ptr %4, ptr %10, align 8
  store ptr %5, ptr %11, align 8
  call void @llvm.lifetime.start.p0(i64 8, ptr %12) #7
  %16 = getelementptr inbounds nuw %struct.SDL_GUID, ptr %7, i32 0, i32 0
  %17 = getelementptr inbounds [16 x i8], ptr %16, i64 0, i64 0
  store ptr %17, ptr %12, align 8
  call void @llvm.lifetime.start.p0(i64 2, ptr %13) #7
  %18 = load ptr, ptr %12, align 8
  %19 = getelementptr inbounds i16, ptr %18, i64 0
  %20 = load i16, ptr %19, align 2
  store i16 %20, ptr %13, align 2
  %21 = load i16, ptr %13, align 2
  %22 = zext i16 %21 to i32
  %23 = icmp slt i32 %22, 32
  br i1 %23, label %28, label %24

24:                                               ; preds = %6
  %25 = load i16, ptr %13, align 2
  %26 = zext i16 %25 to i32
  %27 = icmp eq i32 %26, 255
  br i1 %27, label %28, label %73

28:                                               ; preds = %24, %6
  %29 = load ptr, ptr %12, align 8
  %30 = getelementptr inbounds i16, ptr %29, i64 3
  %31 = load i16, ptr %30, align 2
  %32 = zext i16 %31 to i32
  %33 = icmp eq i32 %32, 0
  br i1 %33, label %34, label %73

34:                                               ; preds = %28
  %35 = load ptr, ptr %12, align 8
  %36 = getelementptr inbounds i16, ptr %35, i64 5
  %37 = load i16, ptr %36, align 2
  %38 = zext i16 %37 to i32
  %39 = icmp eq i32 %38, 0
  br i1 %39, label %40, label %73

40:                                               ; preds = %34
  %41 = load ptr, ptr %8, align 8
  %42 = icmp ne ptr %41, null
  br i1 %42, label %43, label %48

43:                                               ; preds = %40
  %44 = load ptr, ptr %12, align 8
  %45 = getelementptr inbounds i16, ptr %44, i64 2
  %46 = load i16, ptr %45, align 2
  %47 = load ptr, ptr %8, align 8
  store i16 %46, ptr %47, align 2
  br label %48

48:                                               ; preds = %43, %40
  %49 = load ptr, ptr %9, align 8
  %50 = icmp ne ptr %49, null
  br i1 %50, label %51, label %56

51:                                               ; preds = %48
  %52 = load ptr, ptr %12, align 8
  %53 = getelementptr inbounds i16, ptr %52, i64 4
  %54 = load i16, ptr %53, align 2
  %55 = load ptr, ptr %9, align 8
  store i16 %54, ptr %55, align 2
  br label %56

56:                                               ; preds = %51, %48
  %57 = load ptr, ptr %10, align 8
  %58 = icmp ne ptr %57, null
  br i1 %58, label %59, label %64

59:                                               ; preds = %56
  %60 = load ptr, ptr %12, align 8
  %61 = getelementptr inbounds i16, ptr %60, i64 6
  %62 = load i16, ptr %61, align 2
  %63 = load ptr, ptr %10, align 8
  store i16 %62, ptr %63, align 2
  br label %64

64:                                               ; preds = %59, %56
  %65 = load ptr, ptr %11, align 8
  %66 = icmp ne ptr %65, null
  br i1 %66, label %67, label %72

67:                                               ; preds = %64
  %68 = load ptr, ptr %12, align 8
  %69 = getelementptr inbounds i16, ptr %68, i64 1
  %70 = load i16, ptr %69, align 2
  %71 = load ptr, ptr %11, align 8
  store i16 %70, ptr %71, align 2
  br label %72

72:                                               ; preds = %67, %64
  br label %127

73:                                               ; preds = %34, %28, %24
  %74 = load i16, ptr %13, align 2
  %75 = zext i16 %74 to i32
  %76 = icmp slt i32 %75, 32
  br i1 %76, label %81, label %77

77:                                               ; preds = %73
  %78 = load i16, ptr %13, align 2
  %79 = zext i16 %78 to i32
  %80 = icmp eq i32 %79, 255
  br i1 %80, label %81, label %105

81:                                               ; preds = %77, %73
  %82 = load ptr, ptr %8, align 8
  %83 = icmp ne ptr %82, null
  br i1 %83, label %84, label %86

84:                                               ; preds = %81
  %85 = load ptr, ptr %8, align 8
  store i16 0, ptr %85, align 2
  br label %86

86:                                               ; preds = %84, %81
  %87 = load ptr, ptr %9, align 8
  %88 = icmp ne ptr %87, null
  br i1 %88, label %89, label %91

89:                                               ; preds = %86
  %90 = load ptr, ptr %9, align 8
  store i16 0, ptr %90, align 2
  br label %91

91:                                               ; preds = %89, %86
  %92 = load ptr, ptr %10, align 8
  %93 = icmp ne ptr %92, null
  br i1 %93, label %94, label %96

94:                                               ; preds = %91
  %95 = load ptr, ptr %10, align 8
  store i16 0, ptr %95, align 2
  br label %96

96:                                               ; preds = %94, %91
  %97 = load ptr, ptr %11, align 8
  %98 = icmp ne ptr %97, null
  br i1 %98, label %99, label %104

99:                                               ; preds = %96
  %100 = load ptr, ptr %12, align 8
  %101 = getelementptr inbounds i16, ptr %100, i64 1
  %102 = load i16, ptr %101, align 2
  %103 = load ptr, ptr %11, align 8
  store i16 %102, ptr %103, align 2
  br label %104

104:                                              ; preds = %99, %96
  br label %126

105:                                              ; preds = %77
  %106 = load ptr, ptr %8, align 8
  %107 = icmp ne ptr %106, null
  br i1 %107, label %108, label %110

108:                                              ; preds = %105
  %109 = load ptr, ptr %8, align 8
  store i16 0, ptr %109, align 2
  br label %110

110:                                              ; preds = %108, %105
  %111 = load ptr, ptr %9, align 8
  %112 = icmp ne ptr %111, null
  br i1 %112, label %113, label %115

113:                                              ; preds = %110
  %114 = load ptr, ptr %9, align 8
  store i16 0, ptr %114, align 2
  br label %115

115:                                              ; preds = %113, %110
  %116 = load ptr, ptr %10, align 8
  %117 = icmp ne ptr %116, null
  br i1 %117, label %118, label %120

118:                                              ; preds = %115
  %119 = load ptr, ptr %10, align 8
  store i16 0, ptr %119, align 2
  br label %120

120:                                              ; preds = %118, %115
  %121 = load ptr, ptr %11, align 8
  %122 = icmp ne ptr %121, null
  br i1 %122, label %123, label %125

123:                                              ; preds = %120
  %124 = load ptr, ptr %11, align 8
  store i16 0, ptr %124, align 2
  br label %125

125:                                              ; preds = %123, %120
  br label %126

126:                                              ; preds = %125, %104
  br label %127

127:                                              ; preds = %126, %72
  call void @llvm.lifetime.end.p0(i64 2, ptr %13) #7
  call void @llvm.lifetime.end.p0(i64 8, ptr %12) #7
  ret void
}

; Function Attrs: nounwind uwtable
define hidden zeroext i1 @SDL_IsJoystickMFI(i64 %0, i64 %1) #0 {
  %3 = alloca %struct.SDL_GUID, align 1
  %4 = getelementptr inbounds nuw { i64, i64 }, ptr %3, i32 0, i32 0
  store i64 %0, ptr %4, align 1
  %5 = getelementptr inbounds nuw { i64, i64 }, ptr %3, i32 0, i32 1
  store i64 %1, ptr %5, align 1
  %6 = getelementptr inbounds nuw %struct.SDL_GUID, ptr %3, i32 0, i32 0
  %7 = getelementptr inbounds [16 x i8], ptr %6, i64 0, i64 14
  %8 = load i8, ptr %7, align 1
  %9 = zext i8 %8 to i32
  %10 = icmp eq i32 %9, 109
  %11 = select i1 %10, i32 1, i32 0
  %12 = icmp ne i32 %11, 0
  ret i1 %12
}

; Function Attrs: nounwind uwtable
define hidden zeroext i1 @SDL_JoystickGUIDUsesVersion(i64 %0, i64 %1) #0 {
  %3 = alloca i1, align 1
  %4 = alloca %struct.SDL_GUID, align 1
  %5 = alloca i16, align 2
  %6 = alloca i16, align 2
  %7 = alloca i32, align 4
  %8 = getelementptr inbounds nuw { i64, i64 }, ptr %4, i32 0, i32 0
  store i64 %0, ptr %8, align 1
  %9 = getelementptr inbounds nuw { i64, i64 }, ptr %4, i32 0, i32 1
  store i64 %1, ptr %9, align 1
  call void @llvm.lifetime.start.p0(i64 2, ptr %5) #7
  call void @llvm.lifetime.start.p0(i64 2, ptr %6) #7
  %10 = getelementptr inbounds nuw { i64, i64 }, ptr %4, i32 0, i32 0
  %11 = load i64, ptr %10, align 1
  %12 = getelementptr inbounds nuw { i64, i64 }, ptr %4, i32 0, i32 1
  %13 = load i64, ptr %12, align 1
  %14 = call zeroext i1 @SDL_IsJoystickMFI(i64 %11, i64 %13)
  br i1 %14, label %15, label %16

15:                                               ; preds = %2
  store i1 false, ptr %3, align 1
  store i32 1, ptr %7, align 4
  br label %30

16:                                               ; preds = %2
  %17 = getelementptr inbounds nuw { i64, i64 }, ptr %4, i32 0, i32 0
  %18 = load i64, ptr %17, align 1
  %19 = getelementptr inbounds nuw { i64, i64 }, ptr %4, i32 0, i32 1
  %20 = load i64, ptr %19, align 1
  call void @SDL_GetJoystickGUIDInfo_REAL(i64 %18, i64 %20, ptr noundef %5, ptr noundef %6, ptr noundef null, ptr noundef null)
  %21 = load i16, ptr %5, align 2
  %22 = zext i16 %21 to i32
  %23 = icmp ne i32 %22, 0
  br i1 %23, label %24, label %29

24:                                               ; preds = %16
  %25 = load i16, ptr %6, align 2
  %26 = zext i16 %25 to i32
  %27 = icmp ne i32 %26, 0
  br i1 %27, label %28, label %29

28:                                               ; preds = %24
  store i1 true, ptr %3, align 1
  store i32 1, ptr %7, align 4
  br label %30

29:                                               ; preds = %24, %16
  store i1 false, ptr %3, align 1
  store i32 1, ptr %7, align 4
  br label %30

30:                                               ; preds = %29, %28, %15
  call void @llvm.lifetime.end.p0(i64 2, ptr %6) #7
  call void @llvm.lifetime.end.p0(i64 2, ptr %5) #7
  %31 = load i1, ptr %3, align 1
  ret i1 %31
}