; Function Attrs: mustprogress nofree norecurse nosync nounwind willreturn memory(none) uwtable
define hidden zeroext i1 @SDL_JoystickGUIDUsesVersion(i64 %0, i64 %1) local_unnamed_addr #4 {
  %3 = and i64 %1, 71776119061217280
  %4 = icmp eq i64 %3, 30680772461461504
  br i1 %4, label %16, label %SDL_GetJoystickGUIDInfo_REAL.exit

SDL_GetJoystickGUIDInfo_REAL.exit:                ; preds = %2
  %.sroa.0.0.extract.trunc.i = trunc i64 %0 to i32
  %5 = and i32 %.sroa.0.0.extract.trunc.i, 65535
  %6 = icmp samesign ult i32 %5, 32
  %7 = icmp eq i32 %5, 255
  %or.cond.i = or i1 %6, %7
  %8 = icmp ult i64 %0, 281474976710656
  %or.cond61.i = and i1 %8, %or.cond.i
  %9 = and i64 %1, 4294901760
  %10 = icmp eq i64 %9, 0
  %or.cond63.i = and i1 %10, %or.cond61.i
  %11 = and i64 %0, 281470681743360
  %12 = icmp ne i64 %11, 0
  %13 = select i1 %or.cond63.i, i1 %12, i1 false
  %14 = and i64 %1, 65535
  %15 = icmp ne i64 %14, 0
  %or.cond = and i1 %15, %13
  br label %16

16:                                               ; preds = %SDL_GetJoystickGUIDInfo_REAL.exit, %2
  %.0 = phi i1 [ false, %2 ], [ %or.cond, %SDL_GetJoystickGUIDInfo_REAL.exit ]
  ret i1 %.0
}